; Function Attrs: mustprogress uwtable
define void @_Z23grpc_timer_manager_initv() local_unnamed_addr #6 {
  tail call void @gpr_mu_init(ptr noundef nonnull @_ZL4g_mu)
  tail call void @gpr_cv_init(ptr noundef nonnull @_ZL9g_cv_wait)
  tail call void @gpr_cv_init(ptr noundef nonnull @_ZL13g_cv_shutdown)
  store i1 false, ptr @_ZL10g_threaded, align 1
  store i32 0, ptr @_ZL14g_thread_count, align 4, !tbaa !33
  store i32 0, ptr @_ZL14g_waiter_count, align 4, !tbaa !33
  store ptr null, ptr @_ZL19g_completed_threads, align 8, !tbaa !35
  store i1 false, ptr @_ZL18g_has_timed_waiter, align 1
  store i64 9223372036854775807, ptr @_ZL23g_timed_waiter_deadline.0, align 8, !tbaa !37
  %1 = load i8, ptr @_ZL16g_start_threaded, align 1, !tbaa !38, !range !26, !noundef !27
  %2 = trunc nuw i8 %1 to i1
  br i1 %2, label %3, label %_ZL13start_threadsv.exit

3:                                                ; preds = %0
  tail call void @gpr_mu_lock(ptr noundef nonnull @_ZL4g_mu)
  %.b1.i = load i1, ptr @_ZL10g_threaded, align 1
  br i1 %.b1.i, label %5, label %4

4:                                                ; preds = %3
  store i1 true, ptr @_ZL10g_threaded, align 1
  tail call fastcc void @_ZL29start_timer_thread_and_unlockv()
  br label %_ZL13start_threadsv.exit

5:                                                ; preds = %3
  tail call void @gpr_mu_unlock(ptr noundef nonnull @_ZL4g_mu)
  br label %_ZL13start_threadsv.exit

_ZL13start_threadsv.exit:                         ; preds = %5, %4, %0
  ret void
}